target datalayout = "e-m:e-p270:32:32-p271:32:32-p272:64:64-i64:64-i128:128-f80:128-n8:16:32:64-S128"
target triple = "x86_64-pc-linux-gnu"

%struct.__jmp_buf_tag = type { [8 x i64], i32, %struct.__sigset_t }
%struct.__sigset_t = type { [16 x i64] }
%struct.FunctionCallInfoBaseData = type { ptr, ptr, ptr, i32, i8, i16, [0 x %struct.NullableDatum] }
%struct.NullableDatum = type { i64, i8 }
%struct.Node = type { i32 }
%struct.CallContext = type { i32, i8 }
%struct.PLpgSQL_function = type { ptr, i32, i32, %struct.ItemPointerData, i32, i32, ptr, ptr, i32, i32, i8, i8, i8, i8, i8, i8, i32, [100 x i32], i32, i32, i32, i32, i32, i8, i32, i32, i32, ptr, i64, ptr, i32, i8, i8, ptr, i64 }
%struct.ItemPointerData = type { %struct.BlockIdData, i16 }
%struct.BlockIdData = type { i16, i16 }

@.str = private unnamed_addr constant [11 x i8] c"plpgsql-18\00", align 1
@.str.14 = private unnamed_addr constant [29 x i8] c"PL/pgSQL procedure resources\00", align 1
@PG_exception_stack = external global ptr, align 8
@error_context_stack = external global ptr, align 8
@.str.15 = private unnamed_addr constant [22 x i8] c"SPI_finish failed: %s\00", align 1
@.str.16 = private unnamed_addr constant [13 x i8] c"pl_handler.c\00", align 1
@__func__.plpgsql_call_handler = private unnamed_addr constant [21 x i8] c"plpgsql_call_handler\00", align 1

; Function Attrs: inlinehint nounwind uwtable
define internal i64 @PointerGetDatum(ptr noundef %0) #4 {
  %2 = alloca ptr, align 8
  store ptr %0, ptr %2, align 8
  %3 = load ptr, ptr %2, align 8
  %4 = ptrtoint ptr %3 to i64
  ret i64 %4
}

; Function Attrs: nounwind uwtable
define i64 @plpgsql_call_handler(ptr noundef %0) #0 {
  %2 = alloca ptr, align 8
  %3 = alloca i8, align 1
  %4 = alloca ptr, align 8
  %5 = alloca ptr, align 8
  %6 = alloca ptr, align 8
  %7 = alloca i64, align 8
  %8 = alloca i32, align 4
  %9 = alloca ptr, align 8
  %10 = alloca ptr, align 8
  %11 = alloca [1 x %struct.__jmp_buf_tag], align 16
  %12 = alloca i8, align 1
  store ptr %0, ptr %2, align 8
  call void @llvm.lifetime.start.p0(i64 1, ptr %3) #9
  call void @llvm.lifetime.start.p0(i64 8, ptr %4) #9
  call void @llvm.lifetime.start.p0(i64 8, ptr %5) #9
  call void @llvm.lifetime.start.p0(i64 8, ptr %6) #9
  call void @llvm.lifetime.start.p0(i64 8, ptr %7) #9
  store volatile i64 0, ptr %7, align 8
  call void @llvm.lifetime.start.p0(i64 4, ptr %8) #9
  %13 = load ptr, ptr %2, align 8
  %14 = getelementptr inbounds nuw %struct.FunctionCallInfoBaseData, ptr %13, i32 0, i32 1
  %15 = load ptr, ptr %14, align 8
  %16 = icmp ne ptr %15, null
  br i1 %16, label %17, label %32

17:                                               ; preds = %1
  %18 = load ptr, ptr %2, align 8
  %19 = getelementptr inbounds nuw %struct.FunctionCallInfoBaseData, ptr %18, i32 0, i32 1
  %20 = load ptr, ptr %19, align 8
  %21 = getelementptr inbounds nuw %struct.Node, ptr %20, i32 0, i32 0
  %22 = load i32, ptr %21, align 4
  %23 = icmp eq i32 %22, 213
  br i1 %23, label %24, label %32

24:                                               ; preds = %17
  %25 = load ptr, ptr %2, align 8
  %26 = getelementptr inbounds nuw %struct.FunctionCallInfoBaseData, ptr %25, i32 0, i32 1
  %27 = load ptr, ptr %26, align 8
  %28 = getelementptr inbounds nuw %struct.CallContext, ptr %27, i32 0, i32 1
  %29 = load i8, ptr %28, align 4, !range !3, !noundef !4
  %30 = trunc i8 %29 to i1
  %31 = xor i1 %30, true
  br label %32

32:                                               ; preds = %24, %17, %1
  %33 = phi i1 [ false, %17 ], [ false, %1 ], [ %31, %24 ]
  %34 = zext i1 %33 to i8
  store i8 %34, ptr %3, align 1
  %35 = load i8, ptr %3, align 1, !range !3, !noundef !4
  %36 = trunc i8 %35 to i1
  %37 = select i1 %36, i32 1, i32 0
  %38 = call i32 @SPI_connect_ext(i32 noundef %37)
  %39 = load ptr, ptr %2, align 8
  %40 = call ptr @plpgsql_compile(ptr noundef %39, i1 noundef zeroext false)
  store ptr %40, ptr %4, align 8
  %41 = load ptr, ptr %4, align 8
  %42 = getelementptr inbounds nuw %struct.PLpgSQL_function, ptr %41, i32 0, i32 33
  %43 = load ptr, ptr %42, align 8
  store ptr %43, ptr %5, align 8
  %44 = load ptr, ptr %4, align 8
  %45 = getelementptr inbounds nuw %struct.PLpgSQL_function, ptr %44, i32 0, i32 34
  %46 = load i64, ptr %45, align 8
  %47 = add i64 %46, 1
  store i64 %47, ptr %45, align 8
  %48 = load i8, ptr %3, align 1, !range !3, !noundef !4
  %49 = trunc i8 %48 to i1
  br i1 %49, label %50, label %57

50:                                               ; preds = %32
  %51 = load ptr, ptr %4, align 8
  %52 = getelementptr inbounds nuw %struct.PLpgSQL_function, ptr %51, i32 0, i32 31
  %53 = load i8, ptr %52, align 4, !range !3, !noundef !4
  %54 = trunc i8 %53 to i1
  br i1 %54, label %55, label %57

55:                                               ; preds = %50
  %56 = call ptr @ResourceOwnerCreate(ptr noundef null, ptr noundef @.str.14)
  br label %58

57:                                               ; preds = %50, %32
  br label %58

58:                                               ; preds = %57, %55
  %59 = phi ptr [ %56, %55 ], [ null, %57 ]
  store ptr %59, ptr %6, align 8
  br label %60

60:                                               ; preds = %58
  call void @llvm.lifetime.start.p0(i64 8, ptr %9) #9
  %61 = load ptr, ptr @PG_exception_stack, align 8
  store ptr %61, ptr %9, align 8
  call void @llvm.lifetime.start.p0(i64 8, ptr %10) #9
  %62 = load ptr, ptr @error_context_stack, align 8
  store ptr %62, ptr %10, align 8
  call void @llvm.lifetime.start.p0(i64 200, ptr %11) #9
  call void @llvm.lifetime.start.p0(i64 1, ptr %12) #9
  store i8 0, ptr %12, align 1
  %63 = getelementptr inbounds [1 x %struct.__jmp_buf_tag], ptr %11, i64 0, i64 0
  %64 = call i32 @__sigsetjmp(ptr noundef %63, i32 noundef 0) #11
  %65 = icmp eq i32 %64, 0
  br i1 %65, label %66, label %112

66:                                               ; preds = %60
  store ptr %11, ptr @PG_exception_stack, align 8
  %67 = load ptr, ptr %2, align 8
  %68 = getelementptr inbounds nuw %struct.FunctionCallInfoBaseData, ptr %67, i32 0, i32 1
  %69 = load ptr, ptr %68, align 8
  %70 = icmp ne ptr %69, null
  br i1 %70, label %71, label %85

71:                                               ; preds = %66
  %72 = load ptr, ptr %2, align 8
  %73 = getelementptr inbounds nuw %struct.FunctionCallInfoBaseData, ptr %72, i32 0, i32 1
  %74 = load ptr, ptr %73, align 8
  %75 = getelementptr inbounds nuw %struct.Node, ptr %74, i32 0, i32 0
  %76 = load i32, ptr %75, align 4
  %77 = icmp eq i32 %76, 441
  br i1 %77, label %78, label %85

78:                                               ; preds = %71
  %79 = load ptr, ptr %4, align 8
  %80 = load ptr, ptr %2, align 8
  %81 = getelementptr inbounds nuw %struct.FunctionCallInfoBaseData, ptr %80, i32 0, i32 1
  %82 = load ptr, ptr %81, align 8
  %83 = call ptr @plpgsql_exec_trigger(ptr noundef %79, ptr noundef %82)
  %84 = call i64 @PointerGetDatum(ptr noundef %83)
  store volatile i64 %84, ptr %7, align 8
  br label %111

85:                                               ; preds = %71, %66
  %86 = load ptr, ptr %2, align 8
  %87 = getelementptr inbounds nuw %struct.FunctionCallInfoBaseData, ptr %86, i32 0, i32 1
  %88 = load ptr, ptr %87, align 8
  %89 = icmp ne ptr %88, null
  br i1 %89, label %90, label %102

90:                                               ; preds = %85
  %91 = load ptr, ptr %2, align 8
  %92 = getelementptr inbounds nuw %struct.FunctionCallInfoBaseData, ptr %91, i32 0, i32 1
  %93 = load ptr, ptr %92, align 8
  %94 = getelementptr inbounds nuw %struct.Node, ptr %93, i32 0, i32 0
  %95 = load i32, ptr %94, align 4
  %96 = icmp eq i32 %95, 440
  br i1 %96, label %97, label %102

97:                                               ; preds = %90
  %98 = load ptr, ptr %4, align 8
  %99 = load ptr, ptr %2, align 8
  %100 = getelementptr inbounds nuw %struct.FunctionCallInfoBaseData, ptr %99, i32 0, i32 1
  %101 = load ptr, ptr %100, align 8
  call void @plpgsql_exec_event_trigger(ptr noundef %98, ptr noundef %101)
  br label %110

102:                                              ; preds = %90, %85
  %103 = load ptr, ptr %4, align 8
  %104 = load ptr, ptr %2, align 8
  %105 = load ptr, ptr %6, align 8
  %106 = load i8, ptr %3, align 1, !range !3, !noundef !4
  %107 = trunc i8 %106 to i1
  %108 = xor i1 %107, true
  %109 = call i64 @plpgsql_exec_function(ptr noundef %103, ptr noundef %104, ptr noundef null, ptr noundef null, ptr noundef %105, i1 noundef zeroext %108)
  store volatile i64 %109, ptr %7, align 8
  br label %110

110:                                              ; preds = %102, %97
  br label %111

111:                                              ; preds = %110, %78
  br label %113

112:                                              ; preds = %60
  store i8 1, ptr %12, align 1
  br label %113

113:                                              ; preds = %112, %111
  %114 = load ptr, ptr %9, align 8
  store ptr %114, ptr @PG_exception_stack, align 8
  %115 = load ptr, ptr %10, align 8
  store ptr %115, ptr @error_context_stack, align 8
  %116 = load ptr, ptr %4, align 8
  %117 = getelementptr inbounds nuw %struct.PLpgSQL_function, ptr %116, i32 0, i32 34
  %118 = load i64, ptr %117, align 8
  %119 = add i64 %118, -1
  store i64 %119, ptr %117, align 8
  %120 = load ptr, ptr %5, align 8
  %121 = load ptr, ptr %4, align 8
  %122 = getelementptr inbounds nuw %struct.PLpgSQL_function, ptr %121, i32 0, i32 33
  store ptr %120, ptr %122, align 8
  %123 = load ptr, ptr %6, align 8
  %124 = icmp ne ptr %123, null
  br i1 %124, label %125, label %128

125:                                              ; preds = %113
  %126 = load ptr, ptr %6, align 8
  call void @ReleaseAllPlanCacheRefsInOwner(ptr noundef %126)
  %127 = load ptr, ptr %6, align 8
  call void @ResourceOwnerDelete(ptr noundef %127)
  br label %128

128:                                              ; preds = %125, %113
  %129 = load i8, ptr %12, align 1, !range !3, !noundef !4
  %130 = trunc i8 %129 to i1
  br i1 %130, label %131, label %132

131:                                              ; preds = %128
  call void @pg_re_throw() #12
  unreachable

132:                                              ; preds = %128
  %133 = load ptr, ptr %9, align 8
  store ptr %133, ptr @PG_exception_stack, align 8
  %134 = load ptr, ptr %10, align 8
  store ptr %134, ptr @error_context_stack, align 8
  call void @llvm.lifetime.end.p0(i64 1, ptr %12) #9
  call void @llvm.lifetime.end.p0(i64 200, ptr %11) #9
  call void @llvm.lifetime.end.p0(i64 8, ptr %10) #9
  call void @llvm.lifetime.end.p0(i64 8, ptr %9) #9
  br label %135

135:                                              ; preds = %132
  br label %136

136:                                              ; preds = %135
  %137 = call i32 @SPI_finish()
  store i32 %137, ptr %8, align 4
  %138 = icmp ne i32 %137, 2
  br i1 %138, label %139, label %152

139:                                              ; preds = %136
  br label %140

140:                                              ; preds = %139
  br i1 true, label %141, label %143

141:                                              ; preds = %140
  %142 = call zeroext i1 @errstart_cold(i32 noundef 21, ptr noundef @.str) #13
  br i1 %142, label %145, label %149

143:                                              ; preds = %140
  %144 = call zeroext i1 @errstart(i32 noundef 21, ptr noundef @.str)
  br i1 %144, label %145, label %149

145:                                              ; preds = %143, %141
  %146 = load i32, ptr %8, align 4
  %147 = call ptr @SPI_result_code_string(i32 noundef %146)
  %148 = call i32 (ptr, ...) @errmsg_internal(ptr noundef @.str.15, ptr noundef %147)
  call void @errfinish(ptr noundef @.str.16, i32 noundef 300, ptr noundef @__func__.plpgsql_call_handler)
  br label %149

149:                                              ; preds = %145, %143, %141
  unreachable

150:                                              ; No predecessors!
  br label %151

151:                                              ; preds = %150
  br label %152

152:                                              ; preds = %151, %136
  %153 = load volatile i64, ptr %7, align 8
  call void @llvm.lifetime.end.p0(i64 4, ptr %8) #9
  call void @llvm.lifetime.end.p0(i64 8, ptr %7) #9
  call void @llvm.lifetime.end.p0(i64 8, ptr %6) #9
  call void @llvm.lifetime.end.p0(i64 8, ptr %5) #9
  call void @llvm.lifetime.end.p0(i64 8, ptr %4) #9
  call void @llvm.lifetime.end.p0(i64 1, ptr %3) #9
  ret i64 %153
}