; Function Attrs: nounwind uwtable
define i64 @plpgsql_call_handler(ptr noundef %0) local_unnamed_addr #1 {
  %2 = alloca i64, align 8
  %3 = alloca [1 x %struct.__jmp_buf_tag], align 16
  call void @llvm.lifetime.start.p0(i64 8, ptr nonnull %2)
  store volatile i64 0, ptr %2, align 8
  %4 = getelementptr inbounds nuw i8, ptr %0, i64 8
  %5 = load ptr, ptr %4, align 8
  %.not = icmp eq ptr %5, null
  br i1 %.not, label %14, label %6

6:                                                ; preds = %1
  %7 = load i32, ptr %5, align 4
  %8 = icmp eq i32 %7, 213
  br i1 %8, label %9, label %14

9:                                                ; preds = %6
  %10 = getelementptr inbounds nuw i8, ptr %5, i64 4
  %11 = load i8, ptr %10, align 4, !range !3, !noundef !4
  %12 = trunc nuw i8 %11 to i1
  %13 = xor i1 %12, true
  br label %14

14:                                               ; preds = %9, %6, %1
  %15 = phi i1 [ false, %6 ], [ false, %1 ], [ %13, %9 ]
  %16 = zext i1 %15 to i32
  %17 = call i32 @SPI_connect_ext(i32 noundef %16) #11
  %18 = call ptr @plpgsql_compile(ptr noundef nonnull %0, i1 noundef zeroext false) #11
  %19 = getelementptr inbounds nuw i8, ptr %18, i64 536
  %20 = load ptr, ptr %19, align 8
  %21 = getelementptr inbounds nuw i8, ptr %18, i64 544
  %22 = load i64, ptr %21, align 8
  %23 = add i64 %22, 1
  store i64 %23, ptr %21, align 8
  br i1 %15, label %24, label %30

24:                                               ; preds = %14
  %25 = getelementptr inbounds nuw i8, ptr %18, i64 532
  %26 = load i8, ptr %25, align 4, !range !3, !noundef !4
  %27 = trunc nuw i8 %26 to i1
  br i1 %27, label %28, label %30

28:                                               ; preds = %24
  %29 = call ptr @ResourceOwnerCreate(ptr noundef null, ptr noundef nonnull @.str.14) #11
  br label %30

30:                                               ; preds = %14, %24, %28
  %31 = phi ptr [ %29, %28 ], [ null, %24 ], [ null, %14 ]
  %32 = load ptr, ptr @PG_exception_stack, align 8
  %33 = load ptr, ptr @error_context_stack, align 8
  call void @llvm.lifetime.start.p0(i64 200, ptr nonnull %3) #11
  %34 = call i32 @__sigsetjmp(ptr noundef nonnull %3, i32 noundef 0) #13
  %.not41 = icmp eq i32 %34, 0
  br i1 %.not41, label %35, label %45

35:                                               ; preds = %30
  store ptr %3, ptr @PG_exception_stack, align 8
  %36 = load ptr, ptr %4, align 8
  %.not38 = icmp eq ptr %36, null
  br i1 %.not38, label %.thread, label %37

37:                                               ; preds = %35
  %38 = load i32, ptr %36, align 4
  switch i32 %38, label %.thread [
    i32 441, label %39
    i32 440, label %42
  ]

39:                                               ; preds = %37
  %40 = call ptr @plpgsql_exec_trigger(ptr noundef nonnull %18, ptr noundef nonnull %36) #11
  %41 = ptrtoint ptr %40 to i64
  store volatile i64 %41, ptr %2, align 8
  br label %45

42:                                               ; preds = %37
  call void @plpgsql_exec_event_trigger(ptr noundef nonnull %18, ptr noundef nonnull %36) #11
  br label %45

.thread:                                          ; preds = %37, %35
  %43 = xor i1 %15, true
  %44 = call i64 @plpgsql_exec_function(ptr noundef nonnull %18, ptr noundef nonnull %0, ptr noundef null, ptr noundef null, ptr noundef %31, i1 noundef zeroext %43) #11
  store volatile i64 %44, ptr %2, align 8
  br label %45

45:                                               ; preds = %30, %39, %.thread, %42
  store ptr %32, ptr @PG_exception_stack, align 8
  store ptr %33, ptr @error_context_stack, align 8
  %46 = load i64, ptr %21, align 8
  %47 = add i64 %46, -1
  store i64 %47, ptr %21, align 8
  store ptr %20, ptr %19, align 8
  %.not40 = icmp eq ptr %31, null
  br i1 %.not40, label %49, label %48

48:                                               ; preds = %45
  call void @ReleaseAllPlanCacheRefsInOwner(ptr noundef nonnull %31) #11
  call void @ResourceOwnerDelete(ptr noundef nonnull %31) #11
  br label %49

49:                                               ; preds = %48, %45
  br i1 %.not41, label %51, label %50

50:                                               ; preds = %49
  call void @pg_re_throw() #14
  unreachable

51:                                               ; preds = %49
  store ptr %32, ptr @PG_exception_stack, align 8
  store ptr %33, ptr @error_context_stack, align 8
  call void @llvm.lifetime.end.p0(i64 200, ptr nonnull %3) #11
  %52 = call i32 @SPI_finish() #11
  %.not42 = icmp eq i32 %52, 2
  br i1 %.not42, label %57, label %53

53:                                               ; preds = %51
  %54 = call zeroext i1 @errstart_cold(i32 noundef 21, ptr noundef nonnull @.str) #15
  call void @llvm.assume(i1 %54)
  %55 = call ptr @SPI_result_code_string(i32 noundef %52) #11
  %56 = call i32 (ptr, ...) @errmsg_internal(ptr noundef nonnull @.str.15, ptr noundef %55) #11
  call void @errfinish(ptr noundef nonnull @.str.16, i32 noundef 300, ptr noundef nonnull @__func__.plpgsql_call_handler) #11
  unreachable

57:                                               ; preds = %51
  %.0..0..0..0.5 = load volatile i64, ptr %2, align 8
  call void @llvm.lifetime.end.p0(i64 8, ptr nonnull %2)
  ret i64 %.0..0..0..0.5
}